target datalayout = "e-m:e-p270:32:32-p271:32:32-p272:64:64-i64:64-i128:128-f80:128-n8:16:32:64-S128"
target triple = "x86_64-pc-linux-gnu"

%"class.clang::SourceLocation" = type { i32 }
%"class.clang::comments::Lexer" = type { ptr, ptr, ptr, ptr, ptr, ptr, ptr, %"class.clang::SourceLocation", i8, i8, i8, %"class.llvm::SmallString" }
%"class.llvm::SmallString" = type { %"class.llvm::SmallVector.74" }
%"class.llvm::SmallVector.74" = type { %"class.llvm::SmallVectorImpl.75", %"struct.llvm::SmallVectorStorage.79" }
%"class.llvm::SmallVectorImpl.75" = type { %"class.llvm::SmallVectorTemplateBase.76" }
%"class.llvm::SmallVectorTemplateBase.76" = type { %"class.llvm::SmallVectorTemplateCommon.77" }
%"class.llvm::SmallVectorTemplateCommon.77" = type { %"class.llvm::SmallVectorBase.78" }
%"class.llvm::SmallVectorBase.78" = type { ptr, i64, i64 }
%"struct.llvm::SmallVectorStorage.79" = type { [16 x i8] }

; Function Attrs: mustprogress nounwind uwtable
define linkonce_odr hidden noundef ptr @_ZNK4llvm25SmallVectorTemplateCommonIcvE10getFirstElEv(ptr noundef nonnull align 8 dereferenceable(24) %0) #0 comdat align 2 {
  %2 = alloca ptr, align 8
  store ptr %0, ptr %2, align 8
  %3 = load ptr, ptr %2, align 8
  %4 = getelementptr inbounds i8, ptr %3, i64 24
  ret ptr %4
}

; Function Attrs: mustprogress nounwind uwtable
define linkonce_odr hidden void @_ZN4llvm25SmallVectorTemplateCommonIcvEC2Em(ptr noundef nonnull align 8 dereferenceable(24) %0, i64 noundef %1) unnamed_addr #0 comdat align 2 {
  %3 = alloca ptr, align 8
  %4 = alloca i64, align 8
  store ptr %0, ptr %3, align 8
  store i64 %1, ptr %4, align 8
  %5 = load ptr, ptr %3, align 8
  %6 = call noundef ptr @_ZNK4llvm25SmallVectorTemplateCommonIcvE10getFirstElEv(ptr noundef nonnull align 8 dereferenceable(24) %5)
  %7 = load i64, ptr %4, align 8
  call void @_ZN4llvm15SmallVectorBaseImEC2EPvm(ptr noundef nonnull align 8 dereferenceable(24) %5, ptr noundef %6, i64 noundef %7)
  ret void
}

; Function Attrs: mustprogress nounwind uwtable
define linkonce_odr hidden void @_ZN4llvm23SmallVectorTemplateBaseIcLb1EEC2Em(ptr noundef nonnull align 8 dereferenceable(24) %0, i64 noundef %1) unnamed_addr #0 comdat align 2 {
  %3 = alloca ptr, align 8
  %4 = alloca i64, align 8
  store ptr %0, ptr %3, align 8
  store i64 %1, ptr %4, align 8
  %5 = load ptr, ptr %3, align 8
  %6 = load i64, ptr %4, align 8
  call void @_ZN4llvm25SmallVectorTemplateCommonIcvEC2Em(ptr noundef nonnull align 8 dereferenceable(24) %5, i64 noundef %6)
  ret void
}

; Function Attrs: mustprogress nounwind uwtable
define linkonce_odr hidden void @_ZN4llvm15SmallVectorImplIcEC2Ej(ptr noundef nonnull align 8 dereferenceable(24) %0, i32 noundef %1) unnamed_addr #0 comdat align 2 {
  %3 = alloca ptr, align 8
  %4 = alloca i32, align 4
  store ptr %0, ptr %3, align 8
  store i32 %1, ptr %4, align 4
  %5 = load ptr, ptr %3, align 8
  %6 = load i32, ptr %4, align 4
  %7 = zext i32 %6 to i64
  call void @_ZN4llvm23SmallVectorTemplateBaseIcLb1EEC2Em(ptr noundef nonnull align 8 dereferenceable(24) %5, i64 noundef %7)
  ret void
}

; Function Attrs: mustprogress nounwind uwtable
define linkonce_odr hidden void @_ZN4llvm11SmallVectorIcLj16EEC2Ev(ptr noundef nonnull align 8 dereferenceable(40) %0) unnamed_addr #0 comdat align 2 {
  %2 = alloca ptr, align 8
  store ptr %0, ptr %2, align 8
  %3 = load ptr, ptr %2, align 8
  call void @_ZN4llvm15SmallVectorImplIcEC2Ej(ptr noundef nonnull align 8 dereferenceable(24) %3, i32 noundef 16)
  ret void
}

; Function Attrs: mustprogress nounwind uwtable
define linkonce_odr hidden void @_ZN4llvm11SmallStringILj16EEC2Ev(ptr noundef nonnull align 8 dereferenceable(40) %0) unnamed_addr #0 comdat align 2 {
  %2 = alloca ptr, align 8
  store ptr %0, ptr %2, align 8
  %3 = load ptr, ptr %2, align 8
  call void @_ZN4llvm11SmallVectorIcLj16EEC2Ev(ptr noundef nonnull align 8 dereferenceable(40) %3)
  ret void
}

; Function Attrs: mustprogress nounwind uwtable
define dso_local void @_ZN5clang8comments5LexerC2ERN4llvm20BumpPtrAllocatorImplINS2_15MallocAllocatorELm4096ELm4096ELm128EEERNS_17DiagnosticsEngineERKNS0_13CommandTraitsENS_14SourceLocationEPKcSE_b(ptr noundef nonnull align 8 dereferenceable(104) %0, ptr noundef nonnull align 8 dereferenceable(96) %1, ptr noundef nonnull align 8 dereferenceable(1304) %2, ptr noundef nonnull align 8 dereferenceable(64) %3, i32 %4, ptr noundef %5, ptr noundef %6, i1 noundef zeroext %7) unnamed_addr #0 align 2 {
  %9 = alloca %"class.clang::SourceLocation", align 4
  %10 = alloca ptr, align 8
  %11 = alloca ptr, align 8
  %12 = alloca ptr, align 8
  %13 = alloca ptr, align 8
  %14 = alloca ptr, align 8
  %15 = alloca ptr, align 8
  %16 = alloca i8, align 1
  %17 = getelementptr inbounds nuw %"class.clang::SourceLocation", ptr %9, i32 0, i32 0
  store i32 %4, ptr %17, align 4
  store ptr %0, ptr %10, align 8
  store ptr %1, ptr %11, align 8
  store ptr %2, ptr %12, align 8
  store ptr %3, ptr %13, align 8
  store ptr %5, ptr %14, align 8
  store ptr %6, ptr %15, align 8
  %18 = zext i1 %7 to i8
  store i8 %18, ptr %16, align 1
  %19 = load ptr, ptr %10, align 8
  %20 = getelementptr inbounds nuw %"class.clang::comments::Lexer", ptr %19, i32 0, i32 0
  %21 = load ptr, ptr %11, align 8
  store ptr %21, ptr %20, align 8
  %22 = getelementptr inbounds nuw %"class.clang::comments::Lexer", ptr %19, i32 0, i32 1
  %23 = load ptr, ptr %12, align 8
  store ptr %23, ptr %22, align 8
  %24 = getelementptr inbounds nuw %"class.clang::comments::Lexer", ptr %19, i32 0, i32 2
  %25 = load ptr, ptr %13, align 8
  store ptr %25, ptr %24, align 8
  %26 = getelementptr inbounds nuw %"class.clang::comments::Lexer", ptr %19, i32 0, i32 3
  %27 = load ptr, ptr %14, align 8
  store ptr %27, ptr %26, align 8
  %28 = getelementptr inbounds nuw %"class.clang::comments::Lexer", ptr %19, i32 0, i32 4
  %29 = load ptr, ptr %15, align 8
  store ptr %29, ptr %28, align 8
  %30 = getelementptr inbounds nuw %"class.clang::comments::Lexer", ptr %19, i32 0, i32 5
  %31 = load ptr, ptr %14, align 8
  store ptr %31, ptr %30, align 8
  %32 = getelementptr inbounds nuw %"class.clang::comments::Lexer", ptr %19, i32 0, i32 7
  call void @llvm.memcpy.p0.p0.i64(ptr align 8 %32, ptr align 4 %9, i64 4, i1 false)
  %33 = getelementptr inbounds nuw %"class.clang::comments::Lexer", ptr %19, i32 0, i32 8
  %34 = load i8, ptr %16, align 1
  %35 = trunc i8 %34 to i1
  %36 = zext i1 %35 to i8
  store i8 %36, ptr %33, align 4
  %37 = getelementptr inbounds nuw %"class.clang::comments::Lexer", ptr %19, i32 0, i32 9
  store i8 0, ptr %37, align 1
  %38 = getelementptr inbounds nuw %"class.clang::comments::Lexer", ptr %19, i32 0, i32 10
  store i8 0, ptr %38, align 2
  %39 = getelementptr inbounds nuw %"class.clang::comments::Lexer", ptr %19, i32 0, i32 11
  call void @_ZN4llvm11SmallStringILj16EEC2Ev(ptr noundef nonnull align 8 dereferenceable(40) %39)
  ret void
}