; Function Attrs: mustprogress nounwind uwtable
define dso_local void @_ZN5clang8comments5LexerC2ERN4llvm20BumpPtrAllocatorImplINS2_15MallocAllocatorELm4096ELm4096ELm128EEERNS_17DiagnosticsEngineERKNS0_13CommandTraitsENS_14SourceLocationEPKcSE_b(ptr noundef nonnull align 8 dereferenceable(104) %0, ptr noundef nonnull align 8 dereferenceable(96) %1, ptr noundef nonnull align 8 dereferenceable(1304) %2, ptr noundef nonnull align 8 dereferenceable(64) %3, i32 %4, ptr noundef %5, ptr noundef %6, i1 noundef zeroext %7) unnamed_addr #0 align 2 {
  %9 = zext i1 %7 to i8
  store ptr %1, ptr %0, align 8
  %10 = getelementptr inbounds nuw i8, ptr %0, i64 8
  store ptr %2, ptr %10, align 8
  %11 = getelementptr inbounds nuw i8, ptr %0, i64 16
  store ptr %3, ptr %11, align 8
  %12 = getelementptr inbounds nuw i8, ptr %0, i64 24
  store ptr %5, ptr %12, align 8
  %13 = getelementptr inbounds nuw i8, ptr %0, i64 32
  store ptr %6, ptr %13, align 8
  %14 = getelementptr inbounds nuw i8, ptr %0, i64 40
  store ptr %5, ptr %14, align 8
  %15 = getelementptr inbounds nuw i8, ptr %0, i64 56
  store i32 %4, ptr %15, align 8
  %16 = getelementptr inbounds nuw i8, ptr %0, i64 60
  store i8 %9, ptr %16, align 4
  %17 = getelementptr inbounds nuw i8, ptr %0, i64 61
  store i8 0, ptr %17, align 1
  %18 = getelementptr inbounds nuw i8, ptr %0, i64 62
  store i8 0, ptr %18, align 2
  %19 = getelementptr inbounds nuw i8, ptr %0, i64 64
  %20 = getelementptr inbounds i8, ptr %0, i64 88
  tail call void @_ZN4llvm15SmallVectorBaseImEC2EPvm(ptr noundef nonnull align 8 dereferenceable(24) %19, ptr noundef nonnull %20, i64 noundef 16) #18
  ret void
}